; Function Attrs: mustprogress nounwind uwtable
define hidden void @_ZN18G1CMRootMemRegions3addEPP12HeapWordImplS2_(ptr noundef nonnull align 8 dereferenceable(34) %0, ptr noundef %1, ptr noundef %2) local_unnamed_addr #0 align 2 {
  %4 = getelementptr inbounds i8, ptr %0, i64 16
  %5 = tail call noundef i64 asm sideeffect "lock xaddq $0,($2)", "=r,0,r,~{cc},~{memory},~{dirflag},~{fpsr},~{flags}"(i64 1, ptr nonnull %4) #22, !srcloc !15
  %6 = load ptr, ptr %0, align 8
  %7 = getelementptr inbounds %class.MemRegion, ptr %6, i64 %5
  store ptr %1, ptr %7, align 8
  %8 = load ptr, ptr %0, align 8
  %9 = getelementptr inbounds %class.MemRegion, ptr %8, i64 %5
  %10 = load ptr, ptr %9, align 8
  %11 = ptrtoint ptr %2 to i64
  %12 = ptrtoint ptr %10 to i64
  %13 = sub i64 %11, %12
  %14 = lshr i64 %13, 3
  %15 = getelementptr inbounds i8, ptr %9, i64 8
  store i64 %14, ptr %15, align 8
  ret void
}